(dp0
I1
F1.0
sI2
F0.0563521
sI3
F0.0401205
sI4
F0.0298481
sI5
F0.0249463
sI6
F0.0227535
sI7
F0.0206369
sI8
F0.0218253
sI9
F0.0148312
sI10
F0.0204564
sI11
F0.0146957
sI12
F0.0178531
sI13
F0.0237111
sI14
F0.0276224
sI15
F0.0328552
sI16
F0.040982
s.