(dp0
I1
F1.0
sI2
F0.0638947
sI3
F0.0438472
sI4
F0.0319761
sI5
F0.043207
sI6
F0.0349465
sI7
F0.0309903
sI8
F0.0314189
sI9
F0.0235441
sI10
F0.0262985
sI11
F0.0218664
sI12
F0.0261519
sI13
F0.0187129
sI14
F0.0230186
sI15
F0.035195
sI16
F0.0444421
s.