(dp0
I1
I0
sI2
I1
sI3
I2
sI4
I3
sI5
I4
sI6
I5
sI7
I5
sI8
I7
sI9
I8
sI10
I9
sI11
I10
sI12
I11
sI13
I11
sI14
I10
sI15
I9
sI16
I8
sI17
I7
sI18
I4
sI19
I18
sI20
I19
sI21
I20
sI22
I21
sI23
I22
sI24
I23
sI25
I23
sI26
I25
sI27
I25
sI28
I27
sI29
I27
sI30
I29
sI31
I29
sI32
I31
sI33
I31
sI34
I33
sI35
I33
sI36
I35
sI37
I35
sI38
I37
sI39
I37
sI40
I39
sI41
I39
sI42
I41
sI43
I41
sI44
I43
sI45
I43
sI46
I45
sI47
I45
sI48
I47
sI49
I47
sI50
I49
sI51
I49
sI52
I51
sI53
I51
sI54
I53
sI55
I53
sI56
I55
sI57
I55
sI58
I57
sI59
I57
sI60
I59
sI61
I59
sI62
I61
sI63
I61
sI64
I63
sI65
I63
sI66
I65
sI67
I65
sI68
I67
sI69
I67
sI70
I69
sI71
I69
sI72
I22
sI73
I72
sI74
I72
sI75
I21
sI76
I20
sI77
I19
sI78
I18
sI79
I3
sI80
I2
s.