(dp0
I1
F1.42109
sI2
F1.0862
sI3
F1.03225
sI4
F1.03165
sI5
F1.00019
sI6
F1.00008
sI7
F1.00016
sI8
F0.913543
sI9
F0.457957
sI10
F0.142702
sI11
F0.0677864
sI12
F0.0
sI13
F0.0635064
sI14
F0.117195
sI15
F0.215218
sI16
F0.590381
sI17
F1.00007
sI18
F1.03095
sI19
F1.02899
sI20
F1.02526
sI21
F1.01901
sI22
F1.01228
sI23
F1.0121
sI24
F0.694922
sI25
F0.978341
sI26
F0.698534
sI27
F0.955524
sI28
F0.688627
sI29
F0.941472
sI30
F0.697987
sI31
F0.935916
sI32
F0.720775
sI33
F0.926134
sI34
F0.745115
sI35
F0.916704
sI36
F0.760151
sI37
F0.906593
sI38
F0.770897
sI39
F0.893463
sI40
F0.775487
sI41
F0.883484
sI42
F0.779153
sI43
F0.872318
sI44
F0.780971
sI45
F0.862757
sI46
F0.783189
sI47
F0.852643
sI48
F0.783363
sI49
F0.844638
sI50
F0.783963
sI51
F0.835183
sI52
F0.782987
sI53
F0.829195
sI54
F0.782437
sI55
F0.822202
sI56
F0.781265
sI57
F0.82028
sI58
F0.782009
sI59
F0.813386
sI60
F0.782207
sI61
F0.809789
sI62
F0.781901
sI63
F0.804104
sI64
F0.780706
sI65
F0.801948
sI66
F0.781024
sI67
F0.793123
sI68
F0.778018
sI69
F0.78961
sI70
F0.768629
sI71
F0.776311
sI72
F1.01227
sI73
F1.01226
sI74
F1.01227
sI75
F1.01823
sI76
F1.02431
sI77
F1.02763
sI78
F1.03004
sI79
F1.03215
sI80
F1.08509
s.