(dp0
I1
I1
sI2
I80
sI3
I79
sI4
I78
sI5
I17
sI6
I6
sI7
I17
sI8
I16
sI9
I15
sI10
I14
sI11
I13
sI12
I12
sI13
I13
sI14
I14
sI15
I15
sI16
I16
sI17
I17
sI18
I78
sI19
I77
sI20
I76
sI21
I75
sI22
I74
sI23
I71
sI24
I24
sI25
I71
sI26
I26
sI27
I71
sI28
I28
sI29
I71
sI30
I30
sI31
I71
sI32
I32
sI33
I71
sI34
I34
sI35
I71
sI36
I36
sI37
I71
sI38
I38
sI39
I71
sI40
I40
sI41
I71
sI42
I42
sI43
I71
sI44
I44
sI45
I71
sI46
I46
sI47
I71
sI48
I48
sI49
I71
sI50
I50
sI51
I71
sI52
I52
sI53
I71
sI54
I54
sI55
I71
sI56
I56
sI57
I71
sI58
I58
sI59
I71
sI60
I60
sI61
I71
sI62
I62
sI63
I71
sI64
I64
sI65
I71
sI66
I66
sI67
I71
sI68
I68
sI69
I71
sI70
I70
sI71
I71
sI72
I74
sI73
I73
sI74
I74
sI75
I75
sI76
I76
sI77
I77
sI78
I78
sI79
I79
sI80
I80
s.