(dp0
I1
I0
sI2
I1
sI3
I2
sI4
I3
sI5
I4
sI6
I5
sI7
I5
sI8
I7
sI9
I8
sI10
I9
sI11
I10
sI12
I11
sI13
I11
sI14
I10
sI15
I9
sI16
I8
sI17
I7
sI18
I4
sI19
I18
sI20
I19
sI21
I20
sI22
I21
sI23
I22
sI24
I22
sI25
I24
sI26
I24
sI27
I26
sI28
I26
sI29
I28
sI30
I28
sI31
I30
sI32
I30
sI33
I32
sI34
I32
sI35
I34
sI36
I34
sI37
I36
sI38
I36
sI39
I38
sI40
I38
sI41
I40
sI42
I40
sI43
I42
sI44
I42
sI45
I44
sI46
I44
sI47
I46
sI48
I46
sI49
I48
sI50
I48
sI51
I50
sI52
I50
sI53
I52
sI54
I52
sI55
I54
sI56
I54
sI57
I56
sI58
I56
sI59
I58
sI60
I58
sI61
I60
sI62
I60
sI63
I62
sI64
I62
sI65
I64
sI66
I64
sI67
I66
sI68
I66
sI69
I68
sI70
I68
sI71
I21
sI72
I20
sI73
I19
sI74
I18
sI75
I3
sI76
I2
s.