(dp0
I1
F1.42196
sI2
F1.08381
sI3
F1.03221
sI4
F1.03076
sI5
F1.0002
sI6
F1.00007
sI7
F1.00015
sI8
F0.9228
sI9
F0.461225
sI10
F0.157734
sI11
F0.0792144
sI12
F0.0
sI13
F0.0554903
sI14
F0.10352
sI15
F0.240807
sI16
F0.594975
sI17
F1.00006
sI18
F1.03063
sI19
F1.02885
sI20
F1.0258
sI21
F1.01896
sI22
F1.0129
sI23
F0.695562
sI24
F0.975158
sI25
F0.69619
sI26
F0.954063
sI27
F0.685161
sI28
F0.942672
sI29
F0.69663
sI30
F0.935794
sI31
F0.719308
sI32
F0.928184
sI33
F0.74309
sI34
F0.916819
sI35
F0.758121
sI36
F0.90677
sI37
F0.769184
sI38
F0.89362
sI39
F0.773824
sI40
F0.882172
sI41
F0.778063
sI42
F0.871295
sI43
F0.779745
sI44
F0.861125
sI45
F0.782192
sI46
F0.851355
sI47
F0.782397
sI48
F0.843467
sI49
F0.78311
sI50
F0.83425
sI51
F0.782128
sI52
F0.828452
sI53
F0.782184
sI54
F0.82171
sI55
F0.781139
sI56
F0.819938
sI57
F0.781827
sI58
F0.813284
sI59
F0.782191
sI60
F0.809803
sI61
F0.781645
sI62
F0.804187
sI63
F0.780712
sI64
F0.802288
sI65
F0.781298
sI66
F0.794462
sI67
F0.778862
sI68
F0.792707
sI69
F0.77437
sI70
F0.77837
sI71
F1.01826
sI72
F1.02433
sI73
F1.02753
sI74
F1.02977
sI75
F1.03215
sI76
F1.08292
s.