(dp0
I1
I1
sI2
I76
sI3
I75
sI4
I74
sI5
I17
sI6
I6
sI7
I17
sI8
I16
sI9
I15
sI10
I14
sI11
I13
sI12
I12
sI13
I13
sI14
I14
sI15
I15
sI16
I16
sI17
I17
sI18
I74
sI19
I73
sI20
I72
sI21
I71
sI22
I70
sI23
I23
sI24
I70
sI25
I25
sI26
I70
sI27
I27
sI28
I70
sI29
I29
sI30
I70
sI31
I31
sI32
I70
sI33
I33
sI34
I70
sI35
I35
sI36
I70
sI37
I37
sI38
I70
sI39
I39
sI40
I70
sI41
I41
sI42
I70
sI43
I43
sI44
I70
sI45
I45
sI46
I70
sI47
I47
sI48
I70
sI49
I49
sI50
I70
sI51
I51
sI52
I70
sI53
I53
sI54
I70
sI55
I55
sI56
I70
sI57
I57
sI58
I70
sI59
I59
sI60
I70
sI61
I61
sI62
I70
sI63
I63
sI64
I70
sI65
I65
sI66
I70
sI67
I67
sI68
I70
sI69
I69
sI70
I70
sI71
I71
sI72
I72
sI73
I73
sI74
I74
sI75
I75
sI76
I76
s.